; Function Attrs: mustprogress uwtable
define hidden void @_ZN3ue215ComponentRepeat14buildFollowSetERNS_18GlushkovBuildStateERKSt6vectorINS_12PositionInfoESaIS4_EE(ptr noundef nonnull readonly align 8 captures(none) dereferenceable(96) %0, ptr noundef nonnull align 8 dereferenceable(8) %1, ptr noundef nonnull align 8 dereferenceable(24) %2) unnamed_addr #0 align 2 {
  %4 = getelementptr inbounds nuw i8, ptr %0, i64 36
  %5 = load i32, ptr %4, align 4
  %.not = icmp eq i32 %5, 0
  br i1 %.not, label %36, label %6

6:                                                ; preds = %3
  %7 = getelementptr inbounds nuw i8, ptr %0, i64 24
  %8 = load ptr, ptr %7, align 8
  %9 = load ptr, ptr %8, align 8
  %10 = getelementptr inbounds nuw i8, ptr %9, i64 96
  %11 = load ptr, ptr %10, align 8
  tail call void %11(ptr noundef nonnull align 8 dereferenceable(16) %8, ptr noundef nonnull align 8 dereferenceable(8) %1, ptr noundef nonnull align 8 dereferenceable(24) %2)
  %12 = getelementptr inbounds nuw i8, ptr %0, i64 40
  %13 = getelementptr inbounds nuw i8, ptr %0, i64 48
  %14 = load ptr, ptr %13, align 8
  %15 = load ptr, ptr %12, align 8
  %16 = ptrtoint ptr %14 to i64
  %17 = ptrtoint ptr %15 to i64
  %18 = sub i64 %16, %17
  %19 = sdiv exact i64 %18, 24
  %20 = trunc i64 %19 to i32
  %21 = icmp ugt i32 %20, 1
  br i1 %21, label %.lr.ph, label %._crit_edge

.lr.ph:                                           ; preds = %6
  %22 = getelementptr inbounds nuw i8, ptr %0, i64 92
  %23 = getelementptr inbounds nuw i8, ptr %0, i64 88
  br label %24

._crit_edge:                                      ; preds = %34, %6
  tail call void @_ZN3ue215ComponentRepeat11wireRepeatsERNS_18GlushkovBuildStateE(ptr noundef nonnull align 8 dereferenceable(96) %0, ptr noundef nonnull align 8 dereferenceable(8) %1)
  br label %36

24:                                               ; preds = %.lr.ph, %34
  %.012 = phi i32 [ 1, %.lr.ph ], [ %35, %34 ]
  %25 = load i32, ptr %22, align 4
  %26 = add i32 %25, 1
  %27 = load i32, ptr %23, align 8
  %28 = sub i32 %26, %27
  %29 = mul i32 %28, %.012
  %.not11 = icmp eq i32 %29, 0
  br i1 %.not11, label %34, label %30

30:                                               ; preds = %24
  %31 = load ptr, ptr %1, align 8
  %32 = getelementptr inbounds nuw i8, ptr %31, i64 56
  %33 = load ptr, ptr %32, align 8
  tail call void %33(ptr noundef nonnull align 8 dereferenceable(8) %1, i32 noundef %27, i32 noundef %25, i32 noundef %29)
  br label %34

34:                                               ; preds = %30, %24
  %35 = add nuw i32 %.012, 1
  %exitcond.not = icmp eq i32 %35, %20
  br i1 %exitcond.not, label %._crit_edge, label %24, !llvm.loop !18

36:                                               ; preds = %3, %._crit_edge
  ret void
}